target datalayout = "e-m:e-p270:32:32-p271:32:32-p272:64:64-i64:64-i128:128-f80:128-n8:16:32:64-S128"
target triple = "x86_64-pc-linux-gnu"

%"struct.duckdb_zstd::ZSTD_customMem" = type { ptr, ptr, ptr }
%"struct.duckdb_zstd::ZSTD_frameParameters" = type { i32, i32, i32 }
%"struct.duckdb_zstd::ZSTD_compressionParameters" = type { i32, i32, i32, i32, i32, i32, i32 }
%"struct.duckdb_zstd::ZSTD_CCtx_params_s" = type { i32, %"struct.duckdb_zstd::ZSTD_compressionParameters", %"struct.duckdb_zstd::ZSTD_frameParameters", i32, i32, i64, i32, i32, i32, i32, i64, i32, i32, %"struct.duckdb_zstd::ldmParams_t", i32, i32, i32, i32, i32, i32, i32, i32, %"struct.duckdb_zstd::ZSTD_customMem", i32, i32, ptr, ptr, i64, i32 }
%"struct.duckdb_zstd::ldmParams_t" = type { i32, i32, i32, i32, i32, i32 }

; Function Attrs: mustprogress nounwind uwtable
define noundef i64 @_ZN11duckdb_zstd20ZSTD_CCtxParams_initEPNS_18ZSTD_CCtx_params_sEi(ptr noundef %0, i32 noundef %1) #0 {
  %3 = alloca i64, align 8
  %4 = alloca ptr, align 8
  %5 = alloca i32, align 4
  store ptr %0, ptr %4, align 8, !tbaa !96
  store i32 %1, ptr %5, align 4, !tbaa !79
  br label %6

6:                                                ; preds = %2
  %7 = load ptr, ptr %4, align 8, !tbaa !96
  %8 = icmp ne ptr %7, null
  br i1 %8, label %18, label %9

9:                                                ; preds = %6
  br label %10

10:                                               ; preds = %9
  br label %11

11:                                               ; preds = %10
  br label %12

12:                                               ; preds = %11
  br label %13

13:                                               ; preds = %12
  br label %14

14:                                               ; preds = %13
  br label %15

15:                                               ; preds = %14
  br label %16

16:                                               ; preds = %15
  br label %17

17:                                               ; preds = %16
  store i64 -1, ptr %3, align 8
  br label %27

18:                                               ; preds = %6
  br label %19

19:                                               ; preds = %18
  %20 = load ptr, ptr %4, align 8, !tbaa !96
  call void @llvm.memset.p0.i64(ptr align 8 %20, i8 0, i64 216, i1 false)
  %21 = load i32, ptr %5, align 4, !tbaa !79
  %22 = load ptr, ptr %4, align 8, !tbaa !96
  %23 = getelementptr inbounds nuw %"struct.duckdb_zstd::ZSTD_CCtx_params_s", ptr %22, i32 0, i32 3
  store i32 %21, ptr %23, align 4, !tbaa !98
  %24 = load ptr, ptr %4, align 8, !tbaa !96
  %25 = getelementptr inbounds nuw %"struct.duckdb_zstd::ZSTD_CCtx_params_s", ptr %24, i32 0, i32 2
  %26 = getelementptr inbounds nuw %"struct.duckdb_zstd::ZSTD_frameParameters", ptr %25, i32 0, i32 0
  store i32 1, ptr %26, align 8, !tbaa !99
  store i64 0, ptr %3, align 8
  br label %27

27:                                               ; preds = %19, %17
  %28 = load i64, ptr %3, align 8
  ret i64 %28
}